target datalayout = "e-m:e-p270:32:32-p271:32:32-p272:64:64-i64:64-i128:128-f80:128-n8:16:32:64-S128"
target triple = "x86_64-pc-linux-gnu"

@H5FD_init_g = external global i8, align 1
@H5_libterm_g = external global i8, align 1
@.str = private unnamed_addr constant [101 x i8] c"generated/home/dtcxzyw/WorkSpace/Projects/compilers/llvm-opt-benchmark/bench/hdf5/hdf5/src/H5FDlog.c\00", align 1
@H5E_VFL_g = external global i64, align 8
@.str.14 = private unnamed_addr constant [37 x i8] c"%s, errno = %d, error message = '%s'\00", align 1
@__func__.H5FD__log_delete = private unnamed_addr constant [17 x i8] c"H5FD__log_delete\00", align 1
@H5E_CANTDELETEFILE_g = external global i64, align 8
@.str.68 = private unnamed_addr constant [22 x i8] c"unable to delete file\00", align 1

; Function Attrs: nounwind uwtable
define internal i32 @H5FD__log_delete(ptr noundef %0, i64 noundef %1) #0 {
  %3 = alloca i32, align 4
  %4 = alloca ptr, align 8
  %5 = alloca i64, align 8
  %6 = alloca i32, align 4
  %7 = alloca i8, align 1
  %8 = alloca i32, align 4
  %9 = alloca i32, align 4
  store ptr %0, ptr %4, align 8, !tbaa !13
  store i64 %1, ptr %5, align 8, !tbaa !11
  call void @llvm.lifetime.start.p0(i64 4, ptr %6) #9
  store i32 0, ptr %6, align 4, !tbaa !3
  call void @llvm.lifetime.start.p0(i64 1, ptr %7) #9
  store i8 0, ptr %7, align 1, !tbaa !7
  %10 = load i8, ptr @H5FD_init_g, align 1, !tbaa !7, !range !9, !noundef !10
  %11 = trunc i8 %10 to i1
  br i1 %11, label %16, label %12

12:                                               ; preds = %2
  %13 = load i8, ptr @H5_libterm_g, align 1, !tbaa !7, !range !9, !noundef !10
  %14 = trunc i8 %13 to i1
  %15 = xor i1 %14, true
  br label %16

16:                                               ; preds = %12, %2
  %17 = phi i1 [ true, %2 ], [ %15, %12 ]
  %18 = xor i1 %17, true
  %19 = xor i1 %18, true
  %20 = zext i1 %19 to i32
  %21 = sext i32 %20 to i64
  %22 = call i64 @llvm.expect.i64(i64 %21, i64 1)
  %23 = icmp ne i64 %22, 0
  br i1 %23, label %24, label %57

24:                                               ; preds = %16
  %25 = load ptr, ptr %4, align 8, !tbaa !13
  %26 = call i32 @remove(ptr noundef %25) #9
  %27 = icmp slt i32 %26, 0
  br i1 %27, label %28, label %55

28:                                               ; preds = %24
  call void @llvm.lifetime.start.p0(i64 4, ptr %8) #9
  %29 = call ptr @__errno_location() #11
  %30 = load i32, ptr %29, align 4, !tbaa !3
  store i32 %30, ptr %8, align 4, !tbaa !3
  br label %31

31:                                               ; preds = %28
  br label %32

32:                                               ; preds = %31
  br label %33

33:                                               ; preds = %32
  %34 = load i64, ptr @H5E_VFL_g, align 8, !tbaa !11
  %35 = load i64, ptr @H5E_CANTDELETEFILE_g, align 8, !tbaa !11
  %36 = load i32, ptr %8, align 4, !tbaa !3
  %37 = load i32, ptr %8, align 4, !tbaa !3
  %38 = call ptr @strerror(i32 noundef %37) #9
  %39 = call i32 (ptr, ptr, i32, i64, i64, ptr, ...) @H5E_printf_stack(ptr noundef @.str, ptr noundef @__func__.H5FD__log_delete, i32 noundef 1703, i64 noundef %34, i64 noundef %35, ptr noundef @.str.14, ptr noundef @.str.68, i32 noundef %36, ptr noundef %38)
  br label %40

40:                                               ; preds = %33
  br label %41

41:                                               ; preds = %40
  store i8 1, ptr %7, align 1, !tbaa !7
  %42 = load i8, ptr %7, align 1, !tbaa !7, !range !9, !noundef !10
  %43 = trunc i8 %42 to i1
  %44 = zext i1 %43 to i8
  store i8 %44, ptr %7, align 1, !tbaa !7
  br label %45

45:                                               ; preds = %41
  br label %46

46:                                               ; preds = %45
  br label %47

47:                                               ; preds = %46
  store i32 -1, ptr %6, align 4, !tbaa !3
  store i32 10, ptr %9, align 4
  br label %52

48:                                               ; No predecessors!
  br label %49

49:                                               ; preds = %48
  br label %50

50:                                               ; preds = %49
  br label %51

51:                                               ; preds = %50
  store i32 0, ptr %9, align 4
  br label %52

52:                                               ; preds = %47, %51
  call void @llvm.lifetime.end.p0(i64 4, ptr %8) #9
  %53 = load i32, ptr %9, align 4
  switch i32 %53, label %59 [
    i32 0, label %54
    i32 10, label %56
  ]

54:                                               ; preds = %52
  br label %55

55:                                               ; preds = %54, %24
  br label %56

56:                                               ; preds = %55, %52
  br label %57

57:                                               ; preds = %56, %16
  %58 = load i32, ptr %6, align 4, !tbaa !3
  store i32 %58, ptr %3, align 4
  store i32 1, ptr %9, align 4
  br label %59

59:                                               ; preds = %57, %52
  call void @llvm.lifetime.end.p0(i64 1, ptr %7) #9
  call void @llvm.lifetime.end.p0(i64 4, ptr %6) #9
  %60 = load i32, ptr %3, align 4
  ret i32 %60
}