; Function Attrs: nounwind uwtable
define internal range(i32 -1, 1) i32 @H5FD__log_delete(ptr noundef readonly captures(none) %0, i64 %1) #0 {
  %3 = load i8, ptr @H5FD_init_g, align 1, !tbaa !3, !range !7, !noundef !8
  %4 = trunc nuw i8 %3 to i1
  %5 = load i8, ptr @H5_libterm_g, align 1, !range !7
  %6 = trunc nuw i8 %5 to i1
  %7 = xor i1 %6, true
  %8 = select i1 %4, i1 true, i1 %7
  br i1 %8, label %9, label %19, !prof !9

9:                                                ; preds = %2
  %10 = tail call i32 @remove(ptr noundef %0) #19
  %11 = icmp slt i32 %10, 0
  br i1 %11, label %12, label %19

12:                                               ; preds = %9
  %13 = tail call ptr @__errno_location() #21
  %14 = load i32, ptr %13, align 4, !tbaa !21
  %15 = load i64, ptr @H5E_VFL_g, align 8, !tbaa !10
  %16 = load i64, ptr @H5E_CANTDELETEFILE_g, align 8, !tbaa !10
  %17 = tail call ptr @strerror(i32 noundef %14) #19
  %18 = tail call i32 (ptr, ptr, i32, i64, i64, ptr, ...) @H5E_printf_stack(ptr noundef nonnull @.str, ptr noundef nonnull @__func__.H5FD__log_delete, i32 noundef 1703, i64 noundef %15, i64 noundef %16, ptr noundef nonnull @.str.14, ptr noundef nonnull @.str.68, i32 noundef %14, ptr noundef %17) #19
  br label %19

19:                                               ; preds = %2, %9, %12
  %.06 = phi i32 [ -1, %12 ], [ 0, %9 ], [ 0, %2 ]
  ret i32 %.06
}